; Function Attrs: nounwind uwtable
define void @ff_msmpeg4_handle_slices(ptr noundef %0) local_unnamed_addr #0 {
  %2 = getelementptr inbounds nuw i8, ptr %0, i64 3348
  %3 = load i32, ptr %2, align 4, !tbaa !78
  %4 = icmp eq i32 %3, 0
  br i1 %4, label %5, label %19

5:                                                ; preds = %1
  %6 = getelementptr inbounds nuw i8, ptr %0, i64 4136
  %7 = load i32, ptr %6, align 8, !tbaa !79
  %.not = icmp eq i32 %7, 0
  br i1 %.not, label %.sink.split, label %8

8:                                                ; preds = %5
  %9 = getelementptr inbounds nuw i8, ptr %0, i64 3352
  %10 = load i32, ptr %9, align 8, !tbaa !80
  %11 = srem i32 %10, %7
  %12 = icmp eq i32 %11, 0
  br i1 %12, label %13, label %.sink.split

13:                                               ; preds = %8
  %14 = getelementptr inbounds nuw i8, ptr %0, i64 4148
  %15 = load i32, ptr %14, align 4, !tbaa !73
  %16 = icmp ult i32 %15, 4
  br i1 %16, label %17, label %.sink.split

17:                                               ; preds = %13
  tail call void @ff_mpeg4_clean_buffers(ptr noundef nonnull %0) #9
  br label %.sink.split

.sink.split:                                      ; preds = %5, %8, %13, %17
  %.sink = phi i32 [ 1, %17 ], [ 1, %13 ], [ 0, %8 ], [ 0, %5 ]
  %18 = getelementptr inbounds nuw i8, ptr %0, i64 4140
  store i32 %.sink, ptr %18, align 4, !tbaa !81
  br label %19

19:                                               ; preds = %.sink.split, %1
  ret void
}